; Function Attrs: nofree norecurse nounwind memory(read, inaccessiblemem: none) uwtable
define range(i32 0, 14) i32 @av_hwdevice_find_type_by_name(ptr noundef readonly captures(none) %0) local_unnamed_addr #0 {
  br label %2

2:                                                ; preds = %1, %7
  %indvars.iv = phi i64 [ 0, %1 ], [ %indvars.iv.next, %7 ]
  %.not = icmp eq i64 %indvars.iv, 0
  br i1 %.not, label %7, label %3

3:                                                ; preds = %2
  %4 = getelementptr inbounds nuw [14 x ptr], ptr @hw_type_names, i64 0, i64 %indvars.iv
  %5 = load ptr, ptr %4, align 8, !tbaa !4
  %6 = tail call i32 @strcmp(ptr noundef nonnull dereferenceable(1) %5, ptr noundef nonnull dereferenceable(1) %0) #10
  %.not9 = icmp eq i32 %6, 0
  br i1 %.not9, label %.split.loop.exit12, label %7

7:                                                ; preds = %2, %3
  %indvars.iv.next = add nuw nsw i64 %indvars.iv, 1
  %exitcond.not = icmp eq i64 %indvars.iv.next, 14
  br i1 %exitcond.not, label %.split.loop.exit, label %2, !llvm.loop !9

.split.loop.exit12:                               ; preds = %3
  %8 = trunc nuw nsw i64 %indvars.iv to i32
  br label %.split.loop.exit

.split.loop.exit:                                 ; preds = %7, %.split.loop.exit12
  %.06 = phi i32 [ %8, %.split.loop.exit12 ], [ 0, %7 ]
  ret i32 %.06
}